target datalayout = "e-m:e-p270:32:32-p271:32:32-p272:64:64-i64:64-i128:128-f80:128-n8:16:32:64-S128"
target triple = "x86_64-unknown-linux-gnu"

%"class.icu_75::UObject" = type { ptr }
%"class.icu_75::UnicodeString" = type { %"class.icu_75::Replaceable", %"union.icu_75::UnicodeString::StackBufferOrFields" }
%"class.icu_75::Replaceable" = type { %"class.icu_75::UObject" }
%"union.icu_75::UnicodeString::StackBufferOrFields" = type { %struct.anon.0, [32 x i8] }
%struct.anon.0 = type { i16, i32, i32, ptr }
%"struct.icu_75::(anonymous namespace)::DecFmtSymDataSink" = type <{ %"class.icu_75::ResourceSink", ptr, [29 x i8], [3 x i8] }>
%"class.icu_75::ResourceSink" = type { %"class.icu_75::UObject" }
%"class.icu_75::ConstChar16Ptr" = type { ptr }
%"class.icu_75::ResourceTable" = type <{ ptr, ptr, ptr, ptr, i32, %"class.icu_75::ResourceTracer", [3 x i8] }>
%"class.icu_75::ResourceTracer" = type { i8 }

; Function Attrs: mustprogress nounwind uwtable
define linkonce_odr void @_ZN6icu_7514ConstChar16PtrD2Ev(ptr noundef nonnull align 8 dereferenceable(8) %this) unnamed_addr #0 comdat align 2 {
entry:
  %this.addr = alloca ptr, align 8
  store ptr %this, ptr %this.addr, align 8
  %this1 = load ptr, ptr %this.addr, align 8
  %p_ = getelementptr inbounds %"class.icu_75::ConstChar16Ptr", ptr %this1, i32 0, i32 0
  %0 = load ptr, ptr %p_, align 8
  call void asm sideeffect "", "rm,~{memory},~{dirflag},~{fpsr},~{flags}"(ptr %0) #9, !srcloc !14
  ret void
}

; Function Attrs: mustprogress nounwind uwtable
define linkonce_odr void @_ZN6icu_7514ConstChar16PtrC2EPKDs(ptr noundef nonnull align 8 dereferenceable(8) %this, ptr noundef %p) unnamed_addr #0 comdat align 2 {
entry:
  %this.addr = alloca ptr, align 8
  %p.addr = alloca ptr, align 8
  store ptr %this, ptr %this.addr, align 8
  store ptr %p, ptr %p.addr, align 8
  %this1 = load ptr, ptr %this.addr, align 8
  %p_ = getelementptr inbounds %"class.icu_75::ConstChar16Ptr", ptr %this1, i32 0, i32 0
  %0 = load ptr, ptr %p.addr, align 8
  store ptr %0, ptr %p_, align 8
  ret void
}

; Function Attrs: mustprogress uwtable
define linkonce_odr void @_ZNK6icu_7513ResourceValue16getUnicodeStringER10UErrorCode(ptr noalias sret(%"class.icu_75::UnicodeString") align 8 %agg.result, ptr noundef nonnull align 8 dereferenceable(8) %this, ptr noundef nonnull align 4 dereferenceable(4) %errorCode) #1 comdat align 2 personality ptr @__gxx_personality_v0 {
entry:
  %result.ptr = alloca ptr, align 8
  %this.addr = alloca ptr, align 8
  %errorCode.addr = alloca ptr, align 8
  %len = alloca i32, align 4
  %r = alloca ptr, align 8
  %agg.tmp = alloca %"class.icu_75::ConstChar16Ptr", align 8
  %exn.slot = alloca ptr, align 8
  %ehselector.slot = alloca i32, align 4
  store ptr %agg.result, ptr %result.ptr, align 8
  store ptr %this, ptr %this.addr, align 8
  store ptr %errorCode, ptr %errorCode.addr, align 8
  %this1 = load ptr, ptr %this.addr, align 8
  store i32 0, ptr %len, align 4
  %0 = load ptr, ptr %errorCode.addr, align 8
  %vtable = load ptr, ptr %this1, align 8
  %vfn = getelementptr inbounds ptr, ptr %vtable, i64 4
  %1 = load ptr, ptr %vfn, align 8
  %call = call noundef ptr %1(ptr noundef nonnull align 8 dereferenceable(8) %this1, ptr noundef nonnull align 4 dereferenceable(4) %len, ptr noundef nonnull align 4 dereferenceable(4) %0)
  store ptr %call, ptr %r, align 8
  %2 = load ptr, ptr %r, align 8
  call void @_ZN6icu_7514ConstChar16PtrC2EPKDs(ptr noundef nonnull align 8 dereferenceable(8) %agg.tmp, ptr noundef %2)
  %3 = load i32, ptr %len, align 4
  invoke void @_ZN6icu_7513UnicodeStringC1EaNS_14ConstChar16PtrEi(ptr noundef nonnull align 8 dereferenceable(64) %agg.result, i8 noundef signext 1, ptr noundef %agg.tmp, i32 noundef %3)
          to label %invoke.cont unwind label %lpad

invoke.cont:                                      ; preds = %entry
  call void @_ZN6icu_7514ConstChar16PtrD2Ev(ptr noundef nonnull align 8 dereferenceable(8) %agg.tmp) #9
  ret void

lpad:                                             ; preds = %entry
  %4 = landingpad { ptr, i32 }
          cleanup
  %5 = extractvalue { ptr, i32 } %4, 0
  store ptr %5, ptr %exn.slot, align 8
  %6 = extractvalue { ptr, i32 } %4, 1
  store i32 %6, ptr %ehselector.slot, align 4
  call void @_ZN6icu_7514ConstChar16PtrD2Ev(ptr noundef nonnull align 8 dereferenceable(8) %agg.tmp) #9
  br label %eh.resume

eh.resume:                                        ; preds = %lpad
  %exn = load ptr, ptr %exn.slot, align 8
  %sel = load i32, ptr %ehselector.slot, align 4
  %lpad.val = insertvalue { ptr, i32 } poison, ptr %exn, 0
  %lpad.val2 = insertvalue { ptr, i32 } %lpad.val, i32 %sel, 1
  resume { ptr, i32 } %lpad.val2
}

; Function Attrs: mustprogress nounwind uwtable
define internal noundef signext i8 @_ZL9U_FAILURE10UErrorCode(i32 noundef %code) #0 {
entry:
  %code.addr = alloca i32, align 4
  store i32 %code, ptr %code.addr, align 4
  %0 = load i32, ptr %code.addr, align 4
  %cmp = icmp sgt i32 %0, 0
  %conv = zext i1 %cmp to i8
  ret i8 %conv
}

; Function Attrs: mustprogress uwtable
define internal void @_ZN6icu_7512_GLOBAL__N_117DecFmtSymDataSink3putEPKcRNS_13ResourceValueEaR10UErrorCode(ptr noundef nonnull align 8 dereferenceable(45) %this, ptr noundef %key, ptr noundef nonnull align 8 dereferenceable(8) %value, i8 noundef signext %0, ptr noundef nonnull align 4 dereferenceable(4) %errorCode) unnamed_addr #1 align 2 personality ptr @__gxx_personality_v0 {
entry:
  %this.addr = alloca ptr, align 8
  %key.addr = alloca ptr, align 8
  %value.addr = alloca ptr, align 8
  %.addr = alloca i8, align 1
  %errorCode.addr = alloca ptr, align 8
  %symbolsTable = alloca %"class.icu_75::ResourceTable", align 8
  %j = alloca i32, align 4
  %i = alloca i32, align 4
  %ref.tmp = alloca %"class.icu_75::UnicodeString", align 8
  %exn.slot = alloca ptr, align 8
  %ehselector.slot = alloca i32, align 4
  store ptr %this, ptr %this.addr, align 8
  store ptr %key, ptr %key.addr, align 8
  store ptr %value, ptr %value.addr, align 8
  store i8 %0, ptr %.addr, align 1
  store ptr %errorCode, ptr %errorCode.addr, align 8
  %this1 = load ptr, ptr %this.addr, align 8
  %1 = load ptr, ptr %value.addr, align 8
  %2 = load ptr, ptr %errorCode.addr, align 8
  %vtable = load ptr, ptr %1, align 8
  %vfn = getelementptr inbounds ptr, ptr %vtable, i64 11
  %3 = load ptr, ptr %vfn, align 8
  call void %3(ptr sret(%"class.icu_75::ResourceTable") align 8 %symbolsTable, ptr noundef nonnull align 8 dereferenceable(8) %1, ptr noundef nonnull align 4 dereferenceable(4) %2)
  %4 = load ptr, ptr %errorCode.addr, align 8
  %5 = load i32, ptr %4, align 4
  %call = call noundef signext i8 @_ZL9U_FAILURE10UErrorCode(i32 noundef %5)
  %tobool = icmp ne i8 %call, 0
  br i1 %tobool, label %if.then, label %if.end

if.then:                                          ; preds = %entry
  br label %for.end27

if.end:                                           ; preds = %entry
  store i32 0, ptr %j, align 4
  br label %for.cond

for.cond:                                         ; preds = %for.inc25, %if.end
  %6 = load i32, ptr %j, align 4
  %7 = load ptr, ptr %value.addr, align 8
  %call2 = call noundef signext i8 @_ZNK6icu_7513ResourceTable14getKeyAndValueEiRPKcRNS_13ResourceValueE(ptr noundef nonnull align 8 dereferenceable(37) %symbolsTable, i32 noundef %6, ptr noundef nonnull align 8 dereferenceable(8) %key.addr, ptr noundef nonnull align 8 dereferenceable(8) %7)
  %tobool3 = icmp ne i8 %call2, 0
  br i1 %tobool3, label %for.body, label %for.end27

for.body:                                         ; preds = %for.cond
  store i32 0, ptr %i, align 4
  br label %for.cond4

for.cond4:                                        ; preds = %for.inc, %for.body
  %8 = load i32, ptr %i, align 4
  %cmp = icmp slt i32 %8, 29
  br i1 %cmp, label %for.body5, label %for.end

for.body5:                                        ; preds = %for.cond4
  %9 = load i32, ptr %i, align 4
  %idxprom = sext i32 %9 to i64
  %arrayidx = getelementptr inbounds [29 x ptr], ptr @_ZN6icu_75L18gNumberElementKeysE, i64 0, i64 %idxprom
  %10 = load ptr, ptr %arrayidx, align 8
  %cmp6 = icmp ne ptr %10, null
  br i1 %cmp6, label %land.lhs.true, label %if.end24

land.lhs.true:                                    ; preds = %for.body5
  %11 = load ptr, ptr %key.addr, align 8
  %12 = load i32, ptr %i, align 4
  %idxprom7 = sext i32 %12 to i64
  %arrayidx8 = getelementptr inbounds [29 x ptr], ptr @_ZN6icu_75L18gNumberElementKeysE, i64 0, i64 %idxprom7
  %13 = load ptr, ptr %arrayidx8, align 8
  %call9 = call i32 @strcmp(ptr noundef %11, ptr noundef %13) #12
  %cmp10 = icmp eq i32 %call9, 0
  br i1 %cmp10, label %if.then11, label %if.end24

if.then11:                                        ; preds = %land.lhs.true
  %seenSymbol = getelementptr inbounds %"struct.icu_75::(anonymous namespace)::DecFmtSymDataSink", ptr %this1, i32 0, i32 2
  %14 = load i32, ptr %i, align 4
  %idxprom12 = sext i32 %14 to i64
  %arrayidx13 = getelementptr inbounds [29 x i8], ptr %seenSymbol, i64 0, i64 %idxprom12
  %15 = load i8, ptr %arrayidx13, align 1
  %tobool14 = icmp ne i8 %15, 0
  br i1 %tobool14, label %if.end23, label %if.then15

if.then15:                                        ; preds = %if.then11
  %seenSymbol16 = getelementptr inbounds %"struct.icu_75::(anonymous namespace)::DecFmtSymDataSink", ptr %this1, i32 0, i32 2
  %16 = load i32, ptr %i, align 4
  %idxprom17 = sext i32 %16 to i64
  %arrayidx18 = getelementptr inbounds [29 x i8], ptr %seenSymbol16, i64 0, i64 %idxprom17
  store i8 1, ptr %arrayidx18, align 1
  %dfs = getelementptr inbounds %"struct.icu_75::(anonymous namespace)::DecFmtSymDataSink", ptr %this1, i32 0, i32 1
  %17 = load ptr, ptr %dfs, align 8
  %18 = load i32, ptr %i, align 4
  %19 = load ptr, ptr %value.addr, align 8
  %20 = load ptr, ptr %errorCode.addr, align 8
  call void @_ZNK6icu_7513ResourceValue16getUnicodeStringER10UErrorCode(ptr sret(%"class.icu_75::UnicodeString") align 8 %ref.tmp, ptr noundef nonnull align 8 dereferenceable(8) %19, ptr noundef nonnull align 4 dereferenceable(4) %20)
  invoke void @_ZN6icu_7520DecimalFormatSymbols9setSymbolENS0_19ENumberFormatSymbolERKNS_13UnicodeStringEa(ptr noundef nonnull align 8 dereferenceable(2883) %17, i32 noundef %18, ptr noundef nonnull align 8 dereferenceable(64) %ref.tmp, i8 noundef signext 1)
          to label %invoke.cont unwind label %lpad

invoke.cont:                                      ; preds = %if.then15
  call void @_ZN6icu_7513UnicodeStringD1Ev(ptr noundef nonnull align 8 dereferenceable(64) %ref.tmp) #9
  %21 = load ptr, ptr %errorCode.addr, align 8
  %22 = load i32, ptr %21, align 4
  %call19 = call noundef signext i8 @_ZL9U_FAILURE10UErrorCode(i32 noundef %22)
  %tobool20 = icmp ne i8 %call19, 0
  br i1 %tobool20, label %if.then21, label %if.end22

if.then21:                                        ; preds = %invoke.cont
  br label %for.end27

lpad:                                             ; preds = %if.then15
  %23 = landingpad { ptr, i32 }
          cleanup
  %24 = extractvalue { ptr, i32 } %23, 0
  store ptr %24, ptr %exn.slot, align 8
  %25 = extractvalue { ptr, i32 } %23, 1
  store i32 %25, ptr %ehselector.slot, align 4
  call void @_ZN6icu_7513UnicodeStringD1Ev(ptr noundef nonnull align 8 dereferenceable(64) %ref.tmp) #9
  br label %eh.resume

if.end22:                                         ; preds = %invoke.cont
  br label %if.end23

if.end23:                                         ; preds = %if.end22, %if.then11
  br label %for.end

if.end24:                                         ; preds = %land.lhs.true, %for.body5
  br label %for.inc

for.inc:                                          ; preds = %if.end24
  %26 = load i32, ptr %i, align 4
  %inc = add nsw i32 %26, 1
  store i32 %inc, ptr %i, align 4
  br label %for.cond4, !llvm.loop !15

for.end:                                          ; preds = %if.end23, %for.cond4
  br label %for.inc25

for.inc25:                                        ; preds = %for.end
  %27 = load i32, ptr %j, align 4
  %inc26 = add nsw i32 %27, 1
  store i32 %inc26, ptr %j, align 4
  br label %for.cond, !llvm.loop !16

for.end27:                                        ; preds = %if.then21, %for.cond, %if.then
  ret void

eh.resume:                                        ; preds = %lpad
  %exn = load ptr, ptr %exn.slot, align 8
  %sel = load i32, ptr %ehselector.slot, align 4
  %lpad.val = insertvalue { ptr, i32 } poison, ptr %exn, 0
  %lpad.val28 = insertvalue { ptr, i32 } %lpad.val, i32 %sel, 1
  resume { ptr, i32 } %lpad.val28
}