; Function Attrs: mustprogress uwtable
define internal void @_ZN6icu_7512_GLOBAL__N_117DecFmtSymDataSink3putEPKcRNS_13ResourceValueEaR10UErrorCode(ptr nocapture noundef nonnull align 8 dereferenceable(45) %this, ptr noundef %key, ptr noundef nonnull align 8 dereferenceable(8) %value, i8 signext %0, ptr noundef nonnull align 4 dereferenceable(4) %errorCode) unnamed_addr #1 align 2 personality ptr @__gxx_personality_v0 {
entry:
  %len.i = alloca i32, align 4
  %agg.tmp.i = alloca %"class.icu_75::ConstChar16Ptr", align 8
  %key.addr = alloca ptr, align 8
  %symbolsTable = alloca %"class.icu_75::ResourceTable", align 8
  %ref.tmp = alloca %"class.icu_75::UnicodeString", align 8
  store ptr %key, ptr %key.addr, align 8
  %vtable = load ptr, ptr %value, align 8
  %vfn = getelementptr inbounds i8, ptr %vtable, i64 88
  %1 = load ptr, ptr %vfn, align 8
  call void %1(ptr nonnull sret(%"class.icu_75::ResourceTable") align 8 %symbolsTable, ptr noundef nonnull align 8 dereferenceable(8) %value, ptr noundef nonnull align 4 dereferenceable(4) %errorCode)
  %2 = load i32, ptr %errorCode, align 4
  %cmp.i = icmp slt i32 %2, 1
  br i1 %cmp.i, label %for.cond.preheader, label %for.end27

for.cond.preheader:                               ; preds = %entry
  %call217 = call noundef signext i8 @_ZNK6icu_7513ResourceTable14getKeyAndValueEiRPKcRNS_13ResourceValueE(ptr noundef nonnull align 8 dereferenceable(37) %symbolsTable, i32 noundef 0, ptr noundef nonnull align 8 dereferenceable(8) %key.addr, ptr noundef nonnull align 8 dereferenceable(8) %value)
  %tobool3.not18 = icmp eq i8 %call217, 0
  br i1 %tobool3.not18, label %for.end27, label %for.cond4.preheader.lr.ph

for.cond4.preheader.lr.ph:                        ; preds = %for.cond.preheader
  %seenSymbol = getelementptr inbounds i8, ptr %this, i64 16
  %dfs = getelementptr inbounds i8, ptr %this, i64 8
  br label %for.cond4.preheader

for.cond4.preheader:                              ; preds = %for.cond4.preheader.lr.ph, %for.inc25
  %j.019 = phi i32 [ 0, %for.cond4.preheader.lr.ph ], [ %inc26, %for.inc25 ]
  %3 = load ptr, ptr %key.addr, align 8
  br label %for.body5

for.body5:                                        ; preds = %for.cond4.preheader, %for.inc
  %indvars.iv = phi i64 [ 0, %for.cond4.preheader ], [ %indvars.iv.next, %for.inc ]
  %4 = lshr i64 134030132, %indvars.iv
  %5 = and i64 %4, 1
  %cmp6.not.not = icmp eq i64 %5, 0
  br i1 %cmp6.not.not, label %land.lhs.true, label %for.inc

land.lhs.true:                                    ; preds = %for.body5
  %arrayidx = getelementptr inbounds [29 x ptr], ptr @_ZN6icu_75L18gNumberElementKeysE, i64 0, i64 %indvars.iv
  %6 = load ptr, ptr %arrayidx, align 8
  %call9 = call i32 @strcmp(ptr noundef nonnull dereferenceable(1) %3, ptr noundef nonnull dereferenceable(1) %6) #18
  %cmp10 = icmp eq i32 %call9, 0
  br i1 %cmp10, label %if.then11, label %for.inc

if.then11:                                        ; preds = %land.lhs.true
  %7 = trunc i64 %indvars.iv to i32
  %arrayidx13 = getelementptr inbounds [29 x i8], ptr %seenSymbol, i64 0, i64 %indvars.iv
  %8 = load i8, ptr %arrayidx13, align 1
  %tobool14.not = icmp eq i8 %8, 0
  br i1 %tobool14.not, label %if.then15, label %for.inc25

if.then15:                                        ; preds = %if.then11
  store i8 1, ptr %arrayidx13, align 1
  %9 = load ptr, ptr %dfs, align 8
  call void @llvm.lifetime.start.p0(i64 4, ptr nonnull %len.i)
  call void @llvm.lifetime.start.p0(i64 8, ptr nonnull %agg.tmp.i)
  store i32 0, ptr %len.i, align 4, !noalias !21
  %vtable.i = load ptr, ptr %value, align 8, !noalias !21
  %vfn.i = getelementptr inbounds i8, ptr %vtable.i, i64 32
  %10 = load ptr, ptr %vfn.i, align 8, !noalias !21
  %call.i = call noundef ptr %10(ptr noundef nonnull align 8 dereferenceable(8) %value, ptr noundef nonnull align 4 dereferenceable(4) %len.i, ptr noundef nonnull align 4 dereferenceable(4) %errorCode), !noalias !21
  store ptr %call.i, ptr %agg.tmp.i, align 8, !noalias !21
  %11 = load i32, ptr %len.i, align 4, !noalias !21
  invoke void @_ZN6icu_7513UnicodeStringC1EaNS_14ConstChar16PtrEi(ptr noundef nonnull align 8 dereferenceable(64) %ref.tmp, i8 noundef signext 1, ptr noundef nonnull %agg.tmp.i, i32 noundef %11)
          to label %_ZNK6icu_7513ResourceValue16getUnicodeStringER10UErrorCode.exit unwind label %lpad.i

common.resume:                                    ; preds = %lpad, %lpad.i
  %common.resume.op = phi { ptr, i32 } [ %12, %lpad.i ], [ %16, %lpad ]
  resume { ptr, i32 } %common.resume.op

lpad.i:                                           ; preds = %if.then15
  %12 = landingpad { ptr, i32 }
          cleanup
  %13 = load ptr, ptr %agg.tmp.i, align 8, !noalias !21
  call void asm sideeffect "", "rm,~{memory},~{dirflag},~{fpsr},~{flags}"(ptr %13) #15, !srcloc !10
  br label %common.resume

_ZNK6icu_7513ResourceValue16getUnicodeStringER10UErrorCode.exit: ; preds = %if.then15
  %14 = load ptr, ptr %agg.tmp.i, align 8, !noalias !21
  call void asm sideeffect "", "rm,~{memory},~{dirflag},~{fpsr},~{flags}"(ptr %14) #15, !srcloc !10
  call void @llvm.lifetime.end.p0(i64 4, ptr nonnull %len.i)
  call void @llvm.lifetime.end.p0(i64 8, ptr nonnull %agg.tmp.i)
  invoke void @_ZN6icu_7520DecimalFormatSymbols9setSymbolENS0_19ENumberFormatSymbolERKNS_13UnicodeStringEa(ptr noundef nonnull align 8 dereferenceable(2883) %9, i32 noundef %7, ptr noundef nonnull align 8 dereferenceable(64) %ref.tmp, i8 noundef signext 1)
          to label %invoke.cont unwind label %lpad

invoke.cont:                                      ; preds = %_ZNK6icu_7513ResourceValue16getUnicodeStringER10UErrorCode.exit
  call void @_ZN6icu_7513UnicodeStringD1Ev(ptr noundef nonnull align 8 dereferenceable(64) %ref.tmp) #15
  %15 = load i32, ptr %errorCode, align 4
  %cmp.i13 = icmp slt i32 %15, 1
  br i1 %cmp.i13, label %for.inc25, label %for.end27

lpad:                                             ; preds = %_ZNK6icu_7513ResourceValue16getUnicodeStringER10UErrorCode.exit
  %16 = landingpad { ptr, i32 }
          cleanup
  call void @_ZN6icu_7513UnicodeStringD1Ev(ptr noundef nonnull align 8 dereferenceable(64) %ref.tmp) #15
  br label %common.resume

for.inc:                                          ; preds = %for.body5, %land.lhs.true
  %indvars.iv.next = add nuw nsw i64 %indvars.iv, 1
  %exitcond.not = icmp eq i64 %indvars.iv.next, 29
  br i1 %exitcond.not, label %for.inc25, label %for.body5, !llvm.loop !24

for.inc25:                                        ; preds = %for.inc, %invoke.cont, %if.then11
  %inc26 = add nuw nsw i32 %j.019, 1
  %call2 = call noundef signext i8 @_ZNK6icu_7513ResourceTable14getKeyAndValueEiRPKcRNS_13ResourceValueE(ptr noundef nonnull align 8 dereferenceable(37) %symbolsTable, i32 noundef %inc26, ptr noundef nonnull align 8 dereferenceable(8) %key.addr, ptr noundef nonnull align 8 dereferenceable(8) %value)
  %tobool3.not = icmp eq i8 %call2, 0
  br i1 %tobool3.not, label %for.end27, label %for.cond4.preheader, !llvm.loop !25

for.end27:                                        ; preds = %for.inc25, %invoke.cont, %for.cond.preheader, %entry
  ret void
}